(dp0
S'CTT'
p1
I9
sS'ATG'
p2
I10
sS'AAG'
p3
I8
sS'AAA'
p4
I8
sS'ATC'
p5
I7
sS'AAC'
p6
I11
sS'ATA'
p7
I7
sS'AGG'
p8
I14
sS'CCT'
p9
I12
sS'ACT'
p10
I16
sS'AGC'
p11
I15
sS'ACA'
p12
I16
sS'AGA'
p13
I14
sS'CAT'
p14
I6
sS'AAT'
p15
I11
sS'ATT'
p16
I7
sS'CTG'
p17
I9
sS'CTA'
p18
I9
sS'CTC'
p19
I9
sS'CAC'
p20
I6
sS'ACG'
p21
I16
sS'CCG'
p22
I12
sS'AGT'
p23
I15
sS'CCA'
p24
I12
sS'CAA'
p25
I13
sS'CCC'
p26
I12
sS'TAG'
p27
I20
sS'TAT'
p28
I19
sS'GGT'
p29
I5
sS'TGT'
p30
I1
sS'CGA'
p31
I14
sS'CAG'
p32
I13
sS'CGC'
p33
I14
sS'GAT'
p34
I2
sS'CGG'
p35
I14
sS'TTT'
p36
I4
sS'TGC'
p37
I1
sS'GGG'
p38
I5
sS'TGA'
p39
I20
sS'GGA'
p40
I5
sS'TGG'
p41
I18
sS'GGC'
p42
I5
sS'TAC'
p43
I19
sS'GAG'
p44
I3
sS'TCG'
p45
I15
sS'TTA'
p46
I9
sS'GAC'
p47
I2
sS'CGT'
p48
I14
sS'GAA'
p49
I3
sS'TCA'
p50
I15
sS'GCA'
p51
I0
sS'GTA'
p52
I17
sS'GCC'
p53
I0
sS'GTC'
p54
I17
sS'GCG'
p55
I0
sS'GTG'
p56
I17
sS'TTC'
p57
I4
sS'GTT'
p58
I17
sS'GCT'
p59
I0
sS'ACC'
p60
I16
sS'TTG'
p61
I9
sS'TCC'
p62
I15
sS'TAA'
p63
I20
sS'TCT'
p64
I15
s.