(dp0
S'A'
p1
g1
sS'C'
p2
g2
sS'B'
p3
S'CTG'
p4
sS'D'
p5
S'ATG'
p6
sS'G'
p7
g7
sS'H'
p8
S'ACT'
p9
sS'K'
p10
S'GT'
p11
sS'M'
p12
S'AC'
p13
sS'N'
p14
S'ACGT'
p15
sS'S'
p16
S'CG'
p17
sS'R'
p18
S'AG'
p19
sS'T'
p20
g20
sS'W'
p21
S'AT'
p22
sS'V'
p23
S'ACG'
p24
sS'Y'
p25
S'CT'
p26
s.